target datalayout = "e-m:e-p270:32:32-p271:32:32-p272:64:64-i64:64-i128:128-f80:128-n8:16:32:64-S128"
target triple = "x86_64-pc-linux-gnu"

%struct.archive_hmac = type { ptr, ptr, ptr, ptr }
%struct.archive_read = type { %struct.archive, ptr, i32, i64, i64, %struct.archive_read_client, [16 x %struct.archive_read_filter_bidder], ptr, i32, i64, i32, i32, [16 x %struct.archive_format_descriptor], ptr, ptr, ptr, %struct.anon }
%struct.archive = type { i32, i32, ptr, i32, ptr, i32, i32, ptr, %struct.archive_string, ptr, i32, i32, ptr, ptr, i64, i64, i64, i8, i64 }
%struct.archive_string = type { ptr, i64, i64 }
%struct.archive_read_client = type { ptr, ptr, ptr, ptr, ptr, ptr, i32, i32, i64, ptr }
%struct.archive_read_filter_bidder = type { ptr, ptr, ptr }
%struct.archive_format_descriptor = type { ptr, ptr, ptr, ptr, ptr, ptr, ptr, ptr, ptr, ptr, ptr }
%struct.anon = type { ptr, ptr, i32, ptr, ptr }
%struct.zip = type { %struct.archive_string, i64, i64, i64, i64, i32, ptr, %struct.archive_rb_tree, %struct.archive_rb_tree, i64, ptr, i64, i64, i64, i64, ptr, i8, i8, i8, ptr, i64, %struct.z_stream_s, i8, %struct.lzma_stream, i8, %struct.bz_stream, i8, ptr, i8, %struct.IByteIn, i64, %struct.CPpmd8, i8, i8, ptr, ptr, ptr, i32, i32, i8, ptr, ptr, i64, i64, i64, %struct.trad_enc_ctx, i8, %struct.archive_crypto_ctx, i8, ptr, i8, i32, i32, i32, i32, i32, i32, i32, ptr, ptr, ptr }
%struct.archive_rb_tree = type { ptr, ptr }
%struct.z_stream_s = type { ptr, i32, i64, ptr, i32, i64, ptr, ptr, ptr, ptr, ptr, i32, i64, i64 }
%struct.lzma_stream = type { ptr, i64, i64, ptr, i64, i64, ptr, ptr, ptr, ptr, ptr, ptr, i64, i64, i64, i64, i32, i32 }
%struct.bz_stream = type { ptr, i32, i32, i32, ptr, i32, i32, i32, ptr, ptr, ptr, ptr }
%struct.IByteIn = type { ptr, ptr }
%struct.CPpmd8 = type { ptr, ptr, ptr, i32, i32, i32, i32, i32, i32, i32, i32, ptr, ptr, ptr, ptr, ptr, i32, i32, i32, i32, i32, %union.anon, [38 x i8], [128 x i8], [38 x i32], [38 x i32], [256 x i8], [260 x i8], %struct.CPpmd_See, [24 x [32 x %struct.CPpmd_See]], [25 x [64 x i16]] }
%union.anon = type { ptr }
%struct.CPpmd_See = type { i16, i8, i8 }
%struct.trad_enc_ctx = type { [3 x i32] }
%struct.archive_crypto_ctx = type { ptr, ptr, [32 x i8], i32, [16 x i8], [16 x i8], i32 }

@__archive_hmac = external constant %struct.archive_hmac, align 8
@.str.40 = private unnamed_addr constant [24 x i8] c"Truncated ZIP file data\00", align 1
@.str.41 = private unnamed_addr constant [28 x i8] c"ZIP bad Authentication code\00", align 1

; Function Attrs: nounwind uwtable
define internal i32 @check_authentication_code(ptr noundef %0, ptr noundef %1) #0 {
  %3 = alloca i32, align 4
  %4 = alloca ptr, align 8
  %5 = alloca ptr, align 8
  %6 = alloca ptr, align 8
  %7 = alloca ptr, align 8
  %8 = alloca [20 x i8], align 16
  %9 = alloca i64, align 8
  %10 = alloca i32, align 4
  %11 = alloca i32, align 4
  store ptr %0, ptr %4, align 8, !tbaa !11
  store ptr %1, ptr %5, align 8, !tbaa !44
  call void @llvm.lifetime.start.p0(i64 8, ptr %6) #11
  %12 = load ptr, ptr %4, align 8, !tbaa !11
  %13 = getelementptr inbounds nuw %struct.archive_read, ptr %12, i32 0, i32 13
  %14 = load ptr, ptr %13, align 8, !tbaa !47
  %15 = getelementptr inbounds nuw %struct.archive_format_descriptor, ptr %14, i32 0, i32 0
  %16 = load ptr, ptr %15, align 8, !tbaa !60
  store ptr %16, ptr %6, align 8, !tbaa !13
  %17 = load ptr, ptr %6, align 8, !tbaa !13
  %18 = getelementptr inbounds nuw %struct.zip, ptr %17, i32 0, i32 50
  %19 = load i8, ptr %18, align 8, !tbaa !74
  %20 = icmp ne i8 %19, 0
  br i1 %20, label %21, label %54

21:                                               ; preds = %2
  call void @llvm.lifetime.start.p0(i64 8, ptr %7) #11
  call void @llvm.lifetime.start.p0(i64 20, ptr %8) #11
  call void @llvm.lifetime.start.p0(i64 8, ptr %9) #11
  store i64 20, ptr %9, align 8, !tbaa !43
  call void @llvm.lifetime.start.p0(i64 4, ptr %10) #11
  %22 = load ptr, ptr getelementptr inbounds nuw (%struct.archive_hmac, ptr @__archive_hmac, i32 0, i32 2), align 8, !tbaa !183
  %23 = load ptr, ptr %6, align 8, !tbaa !13
  %24 = getelementptr inbounds nuw %struct.zip, ptr %23, i32 0, i32 49
  %25 = getelementptr inbounds [20 x i8], ptr %8, i64 0, i64 0
  call void %22(ptr noundef %24, ptr noundef %25, ptr noundef %9)
  %26 = load ptr, ptr %5, align 8, !tbaa !44
  %27 = icmp eq ptr %26, null
  br i1 %27, label %28, label %37

28:                                               ; preds = %21
  %29 = load ptr, ptr %4, align 8, !tbaa !11
  %30 = call ptr @__archive_read_ahead(ptr noundef %29, i64 noundef 10, ptr noundef null)
  store ptr %30, ptr %7, align 8, !tbaa !44
  %31 = load ptr, ptr %7, align 8, !tbaa !44
  %32 = icmp eq ptr %31, null
  br i1 %32, label %33, label %36

33:                                               ; preds = %28
  %34 = load ptr, ptr %4, align 8, !tbaa !11
  %35 = getelementptr inbounds nuw %struct.archive_read, ptr %34, i32 0, i32 0
  call void (ptr, i32, ptr, ...) @archive_set_error(ptr noundef %35, i32 noundef 84, ptr noundef @.str.40)
  store i32 -30, ptr %3, align 4
  store i32 1, ptr %11, align 4
  br label %51

36:                                               ; preds = %28
  br label %39

37:                                               ; preds = %21
  %38 = load ptr, ptr %5, align 8, !tbaa !44
  store ptr %38, ptr %7, align 8, !tbaa !44
  br label %39

39:                                               ; preds = %37, %36
  %40 = getelementptr inbounds [20 x i8], ptr %8, i64 0, i64 0
  %41 = load ptr, ptr %7, align 8, !tbaa !44
  %42 = call i32 @memcmp(ptr noundef %40, ptr noundef %41, i64 noundef 10) #13
  store i32 %42, ptr %10, align 4, !tbaa !9
  %43 = load ptr, ptr %4, align 8, !tbaa !11
  %44 = call i64 @__archive_read_consume(ptr noundef %43, i64 noundef 10)
  %45 = load i32, ptr %10, align 4, !tbaa !9
  %46 = icmp ne i32 %45, 0
  br i1 %46, label %47, label %50

47:                                               ; preds = %39
  %48 = load ptr, ptr %4, align 8, !tbaa !11
  %49 = getelementptr inbounds nuw %struct.archive_read, ptr %48, i32 0, i32 0
  call void (ptr, i32, ptr, ...) @archive_set_error(ptr noundef %49, i32 noundef -1, ptr noundef @.str.41)
  store i32 -20, ptr %3, align 4
  store i32 1, ptr %11, align 4
  br label %51

50:                                               ; preds = %39
  store i32 0, ptr %11, align 4
  br label %51

51:                                               ; preds = %50, %47, %33
  call void @llvm.lifetime.end.p0(i64 4, ptr %10) #11
  call void @llvm.lifetime.end.p0(i64 8, ptr %9) #11
  call void @llvm.lifetime.end.p0(i64 20, ptr %8) #11
  call void @llvm.lifetime.end.p0(i64 8, ptr %7) #11
  %52 = load i32, ptr %11, align 4
  switch i32 %52, label %55 [
    i32 0, label %53
  ]

53:                                               ; preds = %51
  br label %54

54:                                               ; preds = %53, %2
  store i32 0, ptr %3, align 4
  store i32 1, ptr %11, align 4
  br label %55

55:                                               ; preds = %54, %51
  call void @llvm.lifetime.end.p0(i64 8, ptr %6) #11
  %56 = load i32, ptr %3, align 4
  ret i32 %56
}