; Function Attrs: nounwind uwtable
define internal fastcc range(i32 -30, 1) i32 @check_authentication_code(ptr noundef %0, ptr noundef readonly %1) unnamed_addr #0 {
  %3 = alloca [20 x i8], align 16
  %4 = alloca i64, align 8
  %5 = getelementptr inbounds nuw i8, ptr %0, i64 2072
  %6 = load ptr, ptr %5, align 8, !tbaa !37
  %7 = load ptr, ptr %6, align 8, !tbaa !50
  %8 = getelementptr inbounds nuw i8, ptr %7, i64 8176
  %9 = load i8, ptr %8, align 8, !tbaa !64
  %.not = icmp eq i8 %9, 0
  br i1 %.not, label %21, label %10

10:                                               ; preds = %2
  call void @llvm.lifetime.start.p0(i64 20, ptr nonnull %3) #21
  call void @llvm.lifetime.start.p0(i64 8, ptr nonnull %4) #21
  store i64 20, ptr %4, align 8, !tbaa !69
  %11 = load ptr, ptr getelementptr inbounds nuw (i8, ptr @__archive_hmac, i64 16), align 8, !tbaa !171
  %12 = getelementptr inbounds nuw i8, ptr %7, i64 8168
  call void %11(ptr noundef nonnull %12, ptr noundef nonnull %3, ptr noundef nonnull %4) #21
  %13 = icmp eq ptr %1, null
  br i1 %13, label %14, label %18

14:                                               ; preds = %10
  %15 = call ptr @__archive_read_ahead(ptr noundef nonnull %0, i64 noundef 10, ptr noundef null) #21
  %16 = icmp eq ptr %15, null
  br i1 %16, label %17, label %18

17:                                               ; preds = %14
  call void (ptr, i32, ptr, ...) @archive_set_error(ptr noundef nonnull %0, i32 noundef 84, ptr noundef nonnull @.str.40) #21
  br label %.sink.split

18:                                               ; preds = %10, %14
  %.014 = phi ptr [ %15, %14 ], [ %1, %10 ]
  %bcmp = call i32 @bcmp(ptr noundef nonnull dereferenceable(10) %3, ptr noundef nonnull dereferenceable(10) %.014, i64 10)
  %19 = call i64 @__archive_read_consume(ptr noundef nonnull %0, i64 noundef 10) #21
  %.not17 = icmp eq i32 %bcmp, 0
  br i1 %.not17, label %.sink.split, label %20

20:                                               ; preds = %18
  call void (ptr, i32, ptr, ...) @archive_set_error(ptr noundef nonnull %0, i32 noundef -1, ptr noundef nonnull @.str.41) #21
  br label %.sink.split

.sink.split:                                      ; preds = %18, %20, %17
  %.1.ph = phi i32 [ -20, %20 ], [ -30, %17 ], [ 0, %18 ]
  call void @llvm.lifetime.end.p0(i64 8, ptr nonnull %4) #21
  call void @llvm.lifetime.end.p0(i64 20, ptr nonnull %3) #21
  br label %21

21:                                               ; preds = %.sink.split, %2
  %.1 = phi i32 [ 0, %2 ], [ %.1.ph, %.sink.split ]
  ret i32 %.1
}